target datalayout = "e-m:e-p270:32:32-p271:32:32-p272:64:64-i64:64-i128:128-f80:128-n8:16:32:64-S128"
target triple = "x86_64-pc-linux-gnu"

%"class.icu_77::number::impl::DecimalQuantity" = type <{ %"class.icu_77::IFixedDecimal", i8, [3 x i8], i32, i32, i8, i8, [2 x i8], double, i32, i32, i32, i32, %union.anon, i8, i8, [6 x i8] }>
%"class.icu_77::IFixedDecimal" = type { ptr }
%union.anon = type { %struct.anon }
%struct.anon = type { ptr, i32 }
%"class.icu_77::number::impl::DecNum" = type { %"class.icu_77::MaybeStackHeaderAndArray", %struct.decContext, [4 x i8] }
%"class.icu_77::MaybeStackHeaderAndArray" = type <{ ptr, i32, i8, [3 x i8], %struct.decNumber, [34 x i8], [2 x i8] }>
%struct.decNumber = type { i32, i32, i8, [1 x i8] }
%struct.decContext = type { i32, i32, i32, i32, i32, i32, i8 }

@_ZN12_GLOBAL__N_113NEGATIVE_FLAGE = internal global i8 1, align 1
@.str = private unnamed_addr constant [25 x i8] c"9.223372036854775808E+18\00", align 1

; Function Attrs: mustprogress nounwind uwtable
define void @_ZN6icu_776number4impl15DecimalQuantity12readIntToBcdEi(ptr noundef nonnull align 8 dereferenceable(66) %0, i32 noundef %1) #0 align 2 {
  %3 = alloca ptr, align 8
  %4 = alloca i32, align 4
  %5 = alloca i64, align 8
  %6 = alloca i32, align 4
  store ptr %0, ptr %3, align 8, !tbaa !25
  store i32 %1, ptr %4, align 4, !tbaa !14
  %7 = load ptr, ptr %3, align 8
  call void @llvm.lifetime.start.p0(i64 8, ptr %5) #14
  store i64 0, ptr %5, align 8, !tbaa !18
  call void @llvm.lifetime.start.p0(i64 4, ptr %6) #14
  store i32 16, ptr %6, align 4, !tbaa !14
  br label %8

8:                                                ; preds = %19, %2
  %9 = load i32, ptr %4, align 4, !tbaa !14
  %10 = icmp ne i32 %9, 0
  br i1 %10, label %11, label %24

11:                                               ; preds = %8
  %12 = load i64, ptr %5, align 8, !tbaa !18
  %13 = lshr i64 %12, 4
  %14 = load i32, ptr %4, align 4, !tbaa !14
  %15 = sext i32 %14 to i64
  %16 = urem i64 %15, 10
  %17 = shl i64 %16, 60
  %18 = add i64 %13, %17
  store i64 %18, ptr %5, align 8, !tbaa !18
  br label %19

19:                                               ; preds = %11
  %20 = load i32, ptr %4, align 4, !tbaa !14
  %21 = sdiv i32 %20, 10
  store i32 %21, ptr %4, align 4, !tbaa !14
  %22 = load i32, ptr %6, align 4, !tbaa !14
  %23 = add nsw i32 %22, -1
  store i32 %23, ptr %6, align 4, !tbaa !14
  br label %8, !llvm.loop !70

24:                                               ; preds = %8
  %25 = load i64, ptr %5, align 8, !tbaa !18
  %26 = load i32, ptr %6, align 4, !tbaa !14
  %27 = mul nsw i32 %26, 4
  %28 = zext i32 %27 to i64
  %29 = lshr i64 %25, %28
  %30 = getelementptr inbounds nuw %"class.icu_77::number::impl::DecimalQuantity", ptr %7, i32 0, i32 13
  store i64 %29, ptr %30, align 8, !tbaa !42
  %31 = getelementptr inbounds nuw %"class.icu_77::number::impl::DecimalQuantity", ptr %7, i32 0, i32 3
  store i32 0, ptr %31, align 4, !tbaa !43
  %32 = load i32, ptr %6, align 4, !tbaa !14
  %33 = sub nsw i32 16, %32
  %34 = getelementptr inbounds nuw %"class.icu_77::number::impl::DecimalQuantity", ptr %7, i32 0, i32 4
  store i32 %33, ptr %34, align 8, !tbaa !44
  call void @llvm.lifetime.end.p0(i64 4, ptr %6) #14
  call void @llvm.lifetime.end.p0(i64 8, ptr %5) #14
  ret void
}

; Function Attrs: inlinehint mustprogress nounwind uwtable
define internal noundef signext i8 @_ZL9U_FAILURE10UErrorCode(i32 noundef %0) #2 {
  %2 = alloca i32, align 4
  store i32 %0, ptr %2, align 4, !tbaa !15
  %3 = load i32, ptr %2, align 4, !tbaa !15
  %4 = icmp sgt i32 %3, 0
  %5 = zext i1 %4 to i8
  ret i8 %5
}

; Function Attrs: mustprogress uwtable
define void @_ZN6icu_776number4impl15DecimalQuantity10_setToLongEl(ptr noundef nonnull align 8 dereferenceable(66) %0, i64 noundef %1) #1 align 2 personality ptr @__gxx_personality_v0 {
  %3 = alloca ptr, align 8
  %4 = alloca i64, align 8
  %5 = alloca %"class.icu_77::number::impl::DecNum", align 8
  %6 = alloca i32, align 4
  %7 = alloca ptr, align 8
  %8 = alloca i32, align 4
  %9 = alloca i32, align 4
  store ptr %0, ptr %3, align 8, !tbaa !25
  store i64 %1, ptr %4, align 8, !tbaa !18
  %10 = load ptr, ptr %3, align 8
  %11 = load i64, ptr %4, align 8, !tbaa !18
  %12 = icmp eq i64 %11, -9223372036854775808
  br i1 %12, label %13, label %36

13:                                               ; preds = %2
  call void @llvm.lifetime.start.p0(i64 96, ptr %5) #14
  call void @_ZN6icu_776number4impl6DecNumC1Ev(ptr noundef nonnull align 8 dereferenceable(92) %5)
  call void @llvm.lifetime.start.p0(i64 4, ptr %6) #14
  store i32 0, ptr %6, align 4, !tbaa !15
  invoke void @_ZN6icu_776number4impl6DecNum5setToEPKcR10UErrorCode(ptr noundef nonnull align 8 dereferenceable(92) %5, ptr noundef @.str, ptr noundef nonnull align 4 dereferenceable(4) %6)
          to label %14 unwind label %20

14:                                               ; preds = %13
  %15 = load i32, ptr %6, align 4, !tbaa !15
  %16 = invoke noundef signext i8 @_ZL9U_FAILURE10UErrorCode(i32 noundef %15)
          to label %17 unwind label %20

17:                                               ; preds = %14
  %18 = icmp ne i8 %16, 0
  br i1 %18, label %19, label %24

19:                                               ; preds = %17
  store i32 1, ptr %9, align 4
  br label %33

20:                                               ; preds = %24, %14, %13
  %21 = landingpad { ptr, i32 }
          cleanup
  %22 = extractvalue { ptr, i32 } %21, 0
  store ptr %22, ptr %7, align 8
  %23 = extractvalue { ptr, i32 } %21, 1
  store i32 %23, ptr %8, align 4
  call void @llvm.lifetime.end.p0(i64 4, ptr %6) #14
  call void @_ZN6icu_776number4impl6DecNumD2Ev(ptr noundef nonnull align 8 dereferenceable(92) %5) #14
  call void @llvm.lifetime.end.p0(i64 96, ptr %5) #14
  br label %46

24:                                               ; preds = %17
  %25 = load i8, ptr @_ZN12_GLOBAL__N_113NEGATIVE_FLAGE, align 1, !tbaa !42
  %26 = sext i8 %25 to i32
  %27 = getelementptr inbounds nuw %"class.icu_77::number::impl::DecimalQuantity", ptr %10, i32 0, i32 5
  %28 = load i8, ptr %27, align 4, !tbaa !39
  %29 = sext i8 %28 to i32
  %30 = or i32 %29, %26
  %31 = trunc i32 %30 to i8
  store i8 %31, ptr %27, align 4, !tbaa !39
  invoke void @_ZN6icu_776number4impl15DecimalQuantity18readDecNumberToBcdERKNS1_6DecNumE(ptr noundef nonnull align 8 dereferenceable(66) %10, ptr noundef nonnull align 8 dereferenceable(92) %5)
          to label %32 unwind label %20

32:                                               ; preds = %24
  store i32 0, ptr %9, align 4
  br label %33

33:                                               ; preds = %32, %19
  call void @llvm.lifetime.end.p0(i64 4, ptr %6) #14
  call void @_ZN6icu_776number4impl6DecNumD2Ev(ptr noundef nonnull align 8 dereferenceable(92) %5) #14
  call void @llvm.lifetime.end.p0(i64 96, ptr %5) #14
  %34 = load i32, ptr %9, align 4
  switch i32 %34, label %51 [
    i32 0, label %35
    i32 1, label %45
  ]

35:                                               ; preds = %33
  br label %45

36:                                               ; preds = %2
  %37 = load i64, ptr %4, align 8, !tbaa !18
  %38 = icmp sle i64 %37, 2147483647
  br i1 %38, label %39, label %42

39:                                               ; preds = %36
  %40 = load i64, ptr %4, align 8, !tbaa !18
  %41 = trunc i64 %40 to i32
  call void @_ZN6icu_776number4impl15DecimalQuantity12readIntToBcdEi(ptr noundef nonnull align 8 dereferenceable(66) %10, i32 noundef %41)
  br label %44

42:                                               ; preds = %36
  %43 = load i64, ptr %4, align 8, !tbaa !18
  call void @_ZN6icu_776number4impl15DecimalQuantity13readLongToBcdEl(ptr noundef nonnull align 8 dereferenceable(66) %10, i64 noundef %43)
  br label %44

44:                                               ; preds = %42, %39
  br label %45

45:                                               ; preds = %33, %44, %35
  ret void

46:                                               ; preds = %20
  %47 = load ptr, ptr %7, align 8
  %48 = load i32, ptr %8, align 4
  %49 = insertvalue { ptr, i32 } poison, ptr %47, 0
  %50 = insertvalue { ptr, i32 } %49, i32 %48, 1
  resume { ptr, i32 } %50

51:                                               ; preds = %33
  unreachable
}