; Function Attrs: mustprogress uwtable
define void @_ZN6icu_776number4impl15DecimalQuantity10_setToLongEl(ptr noundef nonnull align 8 captures(none) dereferenceable(66) %0, i64 noundef %1) local_unnamed_addr #1 align 2 personality ptr @__gxx_personality_v0 {
  %3 = alloca %"class.icu_77::number::impl::DecNum", align 8
  %4 = alloca i32, align 4
  %5 = icmp eq i64 %1, -9223372036854775808
  br i1 %5, label %6, label %24

6:                                                ; preds = %2
  call void @llvm.lifetime.start.p0(i64 96, ptr nonnull %3) #26
  call void @_ZN6icu_776number4impl6DecNumC1Ev(ptr noundef nonnull align 8 dereferenceable(92) %3)
  call void @llvm.lifetime.start.p0(i64 4, ptr nonnull %4) #26
  store i32 0, ptr %4, align 4, !tbaa !13
  invoke void @_ZN6icu_776number4impl6DecNum5setToEPKcR10UErrorCode(ptr noundef nonnull align 8 dereferenceable(92) %3, ptr noundef nonnull @.str, ptr noundef nonnull align 4 dereferenceable(4) %4)
          to label %7 unwind label %10

7:                                                ; preds = %6
  %8 = load i32, ptr %4, align 4, !tbaa !13
  %9 = icmp slt i32 %8, 1
  br i1 %9, label %12, label %16

10:                                               ; preds = %12, %6
  %11 = landingpad { ptr, i32 }
          cleanup
  call void @llvm.lifetime.end.p0(i64 4, ptr nonnull %4) #26
  call void @_ZN6icu_776number4impl6DecNumD2Ev(ptr noundef nonnull align 8 dereferenceable(92) %3) #26
  call void @llvm.lifetime.end.p0(i64 96, ptr nonnull %3) #26
  resume { ptr, i32 } %11

12:                                               ; preds = %7
  %13 = getelementptr inbounds nuw i8, ptr %0, i64 20
  %14 = load i8, ptr %13, align 4, !tbaa !35
  %15 = or i8 %14, 1
  store i8 %15, ptr %13, align 4, !tbaa !35
  invoke void @_ZN6icu_776number4impl15DecimalQuantity18readDecNumberToBcdERKNS1_6DecNumE(ptr noundef nonnull align 8 dereferenceable(66) %0, ptr noundef nonnull align 8 dereferenceable(92) %3)
          to label %16 unwind label %10

16:                                               ; preds = %12, %7
  call void @llvm.lifetime.end.p0(i64 4, ptr nonnull %4) #26
  %17 = getelementptr inbounds nuw i8, ptr %3, i64 12
  %18 = load i8, ptr %17, align 4, !tbaa !46
  %.not.i.i.i = icmp eq i8 %18, 0
  br i1 %.not.i.i.i, label %_ZN6icu_776number4impl6DecNumD2Ev.exit, label %19

19:                                               ; preds = %16
  %20 = load ptr, ptr %3, align 8, !tbaa !49
  invoke void @uprv_free_77(ptr noundef %20)
          to label %_ZN6icu_776number4impl6DecNumD2Ev.exit unwind label %21

21:                                               ; preds = %19
  %22 = landingpad { ptr, i32 }
          catch ptr null
  %23 = extractvalue { ptr, i32 } %22, 0
  call void @__clang_call_terminate(ptr %23) #28
  unreachable

_ZN6icu_776number4impl6DecNumD2Ev.exit:           ; preds = %16, %19
  call void @llvm.lifetime.end.p0(i64 96, ptr nonnull %3) #26
  br label %41

24:                                               ; preds = %2
  %25 = icmp slt i64 %1, 2147483648
  br i1 %25, label %26, label %40

26:                                               ; preds = %24
  %27 = trunc i64 %1 to i32
  %.not10.i = icmp eq i32 %27, 0
  br i1 %.not10.i, label %_ZN6icu_776number4impl15DecimalQuantity12readIntToBcdEi.exit, label %.lr.ph.i

.lr.ph.i:                                         ; preds = %26, %.lr.ph.i
  %.013.i = phi i32 [ %32, %.lr.ph.i ], [ 16, %26 ]
  %.0812.i = phi i64 [ %30, %.lr.ph.i ], [ 0, %26 ]
  %.0911.i = phi i32 [ %31, %.lr.ph.i ], [ %27, %26 ]
  %28 = sext i32 %.0911.i to i64
  %29 = urem i64 %28, 10
  %30 = tail call i64 @llvm.fshl.i64(i64 %29, i64 %.0812.i, i64 60)
  %31 = sdiv i32 %.0911.i, 10
  %32 = add nsw i32 %.013.i, -1
  %.0911.off.i = add i32 %.0911.i, 9
  %.not.i = icmp ult i32 %.0911.off.i, 19
  br i1 %.not.i, label %_ZN6icu_776number4impl15DecimalQuantity12readIntToBcdEi.exit, label %.lr.ph.i, !llvm.loop !63

_ZN6icu_776number4impl15DecimalQuantity12readIntToBcdEi.exit: ; preds = %.lr.ph.i, %26
  %.08.lcssa.i = phi i64 [ 0, %26 ], [ %30, %.lr.ph.i ]
  %.0.lcssa.i = phi i32 [ 16, %26 ], [ %32, %.lr.ph.i ]
  %33 = shl nsw i32 %.0.lcssa.i, 2
  %34 = zext nneg i32 %33 to i64
  %35 = lshr i64 %.08.lcssa.i, %34
  %36 = getelementptr inbounds nuw i8, ptr %0, i64 48
  store i64 %35, ptr %36, align 8, !tbaa !26
  %37 = getelementptr inbounds nuw i8, ptr %0, i64 12
  store i32 0, ptr %37, align 4, !tbaa !27
  %38 = sub nsw i32 16, %.0.lcssa.i
  %39 = getelementptr inbounds nuw i8, ptr %0, i64 16
  store i32 %38, ptr %39, align 8, !tbaa !28
  br label %41

40:                                               ; preds = %24
  tail call void @_ZN6icu_776number4impl15DecimalQuantity13readLongToBcdEl(ptr noundef nonnull align 8 dereferenceable(66) %0, i64 noundef %1)
  br label %41

41:                                               ; preds = %_ZN6icu_776number4impl6DecNumD2Ev.exit, %_ZN6icu_776number4impl15DecimalQuantity12readIntToBcdEi.exit, %40
  ret void
}